target datalayout = "e-m:e-p270:32:32-p271:32:32-p272:64:64-i64:64-i128:128-f80:128-n8:16:32:64-S128"
target triple = "x86_64-pc-linux-gnu"

; Function Attrs: nounwind uwtable
define dso_local ptr @get_port(ptr noundef %0) #0 {
  %2 = alloca ptr, align 8
  %3 = alloca ptr, align 8
  %4 = alloca ptr, align 8
  %5 = alloca ptr, align 8
  %6 = alloca i32, align 4
  store ptr %0, ptr %3, align 8
  store i32 0, ptr %6, align 4
  %7 = load ptr, ptr %3, align 8
  %8 = call ptr @get_ip(ptr noundef %7)
  store ptr %8, ptr %4, align 8
  %9 = load ptr, ptr %4, align 8
  %10 = icmp ne ptr %9, null
  br i1 %10, label %12, label %11

11:                                               ; preds = %1
  store ptr null, ptr %2, align 8
  br label %41

12:                                               ; preds = %1
  %13 = load ptr, ptr %3, align 8
  %14 = getelementptr inbounds i8, ptr %13, i64 0
  %15 = load i8, ptr %14, align 1
  %16 = sext i8 %15 to i32
  %17 = icmp eq i32 %16, 91
  br i1 %17, label %18, label %21

18:                                               ; preds = %12
  %19 = load i32, ptr %6, align 4
  %20 = add i32 %19, 2
  store i32 %20, ptr %6, align 4
  br label %21

21:                                               ; preds = %18, %12
  %22 = load ptr, ptr %3, align 8
  %23 = load ptr, ptr %4, align 8
  %24 = call i64 @strlen(ptr noundef %23) #14
  %25 = getelementptr inbounds i8, ptr %22, i64 %24
  %26 = load i32, ptr %6, align 4
  %27 = zext i32 %26 to i64
  %28 = getelementptr inbounds i8, ptr %25, i64 %27
  store ptr %28, ptr %5, align 8
  %29 = load ptr, ptr %5, align 8
  %30 = load i8, ptr %29, align 1
  %31 = sext i8 %30 to i32
  %32 = icmp eq i32 %31, 58
  br i1 %32, label %33, label %39

33:                                               ; preds = %21
  %34 = load ptr, ptr %5, align 8
  %35 = getelementptr inbounds i8, ptr %34, i64 1
  %36 = call noalias ptr @strdup(ptr noundef %35) #13
  store ptr %36, ptr %5, align 8
  %37 = load ptr, ptr %4, align 8
  call void @free(ptr noundef %37) #13
  %38 = load ptr, ptr %5, align 8
  store ptr %38, ptr %2, align 8
  br label %41

39:                                               ; preds = %21
  %40 = load ptr, ptr %4, align 8
  call void @free(ptr noundef %40) #13
  store ptr null, ptr %2, align 8
  br label %41

41:                                               ; preds = %39, %33, %11
  %42 = load ptr, ptr %2, align 8
  ret ptr %42
}