; Function Attrs: nounwind uwtable
define dso_local noalias ptr @get_port(ptr nocapture noundef readonly %0) local_unnamed_addr #0 {
  %2 = tail call ptr @get_ip(ptr noundef %0)
  %.not = icmp eq ptr %2, null
  br i1 %.not, label %14, label %3

3:                                                ; preds = %1
  %4 = load i8, ptr %0, align 1
  %5 = icmp eq i8 %4, 91
  %spec.select = select i1 %5, i64 2, i64 0
  %6 = tail call i64 @strlen(ptr noundef nonnull dereferenceable(1) %2) #26
  %7 = getelementptr inbounds i8, ptr %0, i64 %6
  %8 = getelementptr inbounds i8, ptr %7, i64 %spec.select
  %9 = load i8, ptr %8, align 1
  %10 = icmp eq i8 %9, 58
  br i1 %10, label %11, label %.sink.split

11:                                               ; preds = %3
  %12 = getelementptr inbounds i8, ptr %8, i64 1
  %13 = tail call noalias ptr @strdup(ptr noundef nonnull %12) #25
  br label %.sink.split

.sink.split:                                      ; preds = %3, %11
  %.012.ph = phi ptr [ %13, %11 ], [ null, %3 ]
  tail call void @free(ptr noundef nonnull %2) #25
  br label %14

14:                                               ; preds = %.sink.split, %1
  %.012 = phi ptr [ null, %1 ], [ %.012.ph, %.sink.split ]
  ret ptr %.012
}